target datalayout = "e-m:e-p270:32:32-p271:32:32-p272:64:64-i64:64-i128:128-f80:128-n8:16:32:64-S128"
target triple = "x86_64-pc-linux-gnu"

%"class.vcg::GLMeshAttributesInfo::RenderingAtts" = type { [7 x i8] }
%"class.std::exception" = type { ptr }
%"class.std::allocator.138" = type { i8 }
%"struct.vcg::GLMeshAttributesInfo::Exception" = type { %"class.std::exception", %"class.std::__cxx11::basic_string" }
%"class.std::__cxx11::basic_string" = type { %"struct.std::__cxx11::basic_string<char>::_Alloc_hider", i64, %union.anon }
%"struct.std::__cxx11::basic_string<char>::_Alloc_hider" = type { ptr }
%union.anon = type { i64, [8 x i8] }

@.str.7 = private unnamed_addr constant [20 x i8] c"Out of range value\0A\00", align 1
@_ZTIN3vcg20GLMeshAttributesInfo9ExceptionE = linkonce_odr constant { ptr, ptr, ptr } { ptr getelementptr inbounds (ptr, ptr @_ZTVN10__cxxabiv120__si_class_type_infoE, i64 2), ptr @_ZTSN3vcg20GLMeshAttributesInfo9ExceptionE, ptr @_ZTISt9exception }, comdat, align 8
@_ZTVSt9exception = external unnamed_addr constant { [5 x ptr] }, align 8

; Function Attrs: mustprogress nounwind uwtable
define linkonce_odr void @_ZNSt9exceptionC2Ev(ptr noundef nonnull align 8 dereferenceable(8) %0) unnamed_addr #4 comdat align 2 {
  %2 = alloca ptr, align 8
  store ptr %0, ptr %2, align 8
  %3 = load ptr, ptr %2, align 8
  store ptr getelementptr inbounds ({ [5 x ptr] }, ptr @_ZTVSt9exception, i32 0, i32 0, i32 2), ptr %3, align 8
  ret void
}

; Function Attrs: mustprogress uwtable
define linkonce_odr void @_ZN3vcg20GLMeshAttributesInfo9ExceptionC2EPKc(ptr noundef nonnull align 8 dereferenceable(40) %0, ptr noundef %1) unnamed_addr #5 comdat align 2 personality ptr @__gxx_personality_v0 {
  %3 = alloca ptr, align 8
  %4 = alloca ptr, align 8
  %5 = alloca %"class.std::allocator.138", align 1
  %6 = alloca ptr, align 8
  %7 = alloca i32, align 4
  store ptr %0, ptr %3, align 8
  store ptr %1, ptr %4, align 8
  %8 = load ptr, ptr %3, align 8
  call void @_ZNSt9exceptionC2Ev(ptr noundef nonnull align 8 dereferenceable(8) %8) #3
  store ptr getelementptr inbounds ({ [5 x ptr] }, ptr @_ZTVN3vcg20GLMeshAttributesInfo9ExceptionE, i32 0, i32 0, i32 2), ptr %8, align 8
  %9 = getelementptr inbounds %"struct.vcg::GLMeshAttributesInfo::Exception", ptr %8, i32 0, i32 1
  %10 = load ptr, ptr %4, align 8
  call void @_ZNSaIcEC1Ev(ptr noundef nonnull align 1 dereferenceable(1) %5) #3
  invoke void @_ZNSt7__cxx1112basic_stringIcSt11char_traitsIcESaIcEEC1EPKcRKS3_(ptr noundef nonnull align 8 dereferenceable(32) %9, ptr noundef %10, ptr noundef nonnull align 1 dereferenceable(1) %5)
          to label %11 unwind label %12

11:                                               ; preds = %2
  call void @_ZNSaIcED1Ev(ptr noundef nonnull align 1 dereferenceable(1) %5) #3
  ret void

12:                                               ; preds = %2
  %13 = landingpad { ptr, i32 }
          cleanup
  %14 = extractvalue { ptr, i32 } %13, 0
  store ptr %14, ptr %6, align 8
  %15 = extractvalue { ptr, i32 } %13, 1
  store i32 %15, ptr %7, align 4
  call void @_ZNSaIcED1Ev(ptr noundef nonnull align 1 dereferenceable(1) %5) #3
  call void @_ZNSt9exceptionD2Ev(ptr noundef nonnull align 8 dereferenceable(8) %8) #3
  br label %16

16:                                               ; preds = %12
  %17 = load ptr, ptr %6, align 8
  %18 = load i32, ptr %7, align 4
  %19 = insertvalue { ptr, i32 } poison, ptr %17, 0
  %20 = insertvalue { ptr, i32 } %19, i32 %18, 1
  resume { ptr, i32 } %20
}

; Function Attrs: mustprogress nounwind uwtable
define linkonce_odr noundef i32 @_ZN3vcg20GLMeshAttributesInfo9ATT_NAMES9enumArityEv() #4 comdat align 2 {
  ret i32 7
}

; Function Attrs: mustprogress uwtable
define linkonce_odr noundef nonnull align 1 dereferenceable(1) ptr @_ZN3vcg20GLMeshAttributesInfo13RenderingAttsINS0_9ATT_NAMESEEixEj(ptr noundef nonnull align 1 dereferenceable(7) %0, i32 noundef %1) #5 comdat align 2 personality ptr @__gxx_personality_v0 {
  %3 = alloca ptr, align 8
  %4 = alloca i32, align 4
  %5 = alloca ptr, align 8
  %6 = alloca i32, align 4
  store ptr %0, ptr %3, align 8
  store i32 %1, ptr %4, align 4
  %7 = load ptr, ptr %3, align 8
  %8 = load i32, ptr %4, align 4
  %9 = call noundef i32 @_ZN3vcg20GLMeshAttributesInfo9ATT_NAMES9enumArityEv()
  %10 = icmp uge i32 %8, %9
  br i1 %10, label %11, label %18

11:                                               ; preds = %2
  %12 = call ptr @__cxa_allocate_exception(i64 40) #3
  invoke void @_ZN3vcg20GLMeshAttributesInfo9ExceptionC2EPKc(ptr noundef nonnull align 8 dereferenceable(40) %12, ptr noundef @.str.7)
          to label %13 unwind label %14

13:                                               ; preds = %11
  call void @__cxa_throw(ptr %12, ptr @_ZTIN3vcg20GLMeshAttributesInfo9ExceptionE, ptr @_ZN3vcg20GLMeshAttributesInfo9ExceptionD2Ev) #14
  unreachable

14:                                               ; preds = %11
  %15 = landingpad { ptr, i32 }
          cleanup
  %16 = extractvalue { ptr, i32 } %15, 0
  store ptr %16, ptr %5, align 8
  %17 = extractvalue { ptr, i32 } %15, 1
  store i32 %17, ptr %6, align 4
  call void @__cxa_free_exception(ptr %12) #3
  br label %23

18:                                               ; preds = %2
  %19 = getelementptr inbounds %"class.vcg::GLMeshAttributesInfo::RenderingAtts", ptr %7, i32 0, i32 0
  %20 = load i32, ptr %4, align 4
  %21 = zext i32 %20 to i64
  %22 = getelementptr inbounds [7 x i8], ptr %19, i64 0, i64 %21
  ret ptr %22

23:                                               ; preds = %14
  %24 = load ptr, ptr %5, align 8
  %25 = load i32, ptr %6, align 4
  %26 = insertvalue { ptr, i32 } poison, ptr %24, 0
  %27 = insertvalue { ptr, i32 } %26, i32 %25, 1
  resume { ptr, i32 } %27
}

; Function Attrs: mustprogress uwtable
define void @_ZN29MLPoliciesStandAloneFunctions38filterUselessUdpateAccordingToMeshMaskEP9MeshModelRN3vcg20GLMeshAttributesInfo13RenderingAttsINS3_9ATT_NAMESEEE(ptr noundef %0, ptr noundef nonnull align 1 dereferenceable(7) %1) #5 align 2 {
  %3 = alloca ptr, align 8
  %4 = alloca ptr, align 8
  store ptr %0, ptr %3, align 8
  store ptr %1, ptr %4, align 8
  %5 = load ptr, ptr %3, align 8
  %6 = icmp eq ptr %5, null
  br i1 %6, label %7, label %8

7:                                                ; preds = %2
  br label %86

8:                                                ; preds = %2
  %9 = load ptr, ptr %3, align 8
  %10 = call noundef zeroext i1 @_ZNK9MeshModel11hasDataMaskEi(ptr noundef nonnull align 8 dereferenceable(1288) %9, i32 noundef 1)
  %11 = zext i1 %10 to i32
  %12 = load ptr, ptr %4, align 8
  %13 = call noundef nonnull align 1 dereferenceable(1) ptr @_ZN3vcg20GLMeshAttributesInfo13RenderingAttsINS0_9ATT_NAMESEEixEj(ptr noundef nonnull align 1 dereferenceable(7) %12, i32 noundef 0)
  %14 = load i8, ptr %13, align 1
  %15 = trunc i8 %14 to i1
  %16 = zext i1 %15 to i32
  %17 = and i32 %16, %11
  %18 = icmp ne i32 %17, 0
  %19 = zext i1 %18 to i8
  store i8 %19, ptr %13, align 1
  %20 = load ptr, ptr %3, align 8
  %21 = call noundef zeroext i1 @_ZNK9MeshModel11hasDataMaskEi(ptr noundef nonnull align 8 dereferenceable(1288) %20, i32 noundef 2)
  %22 = zext i1 %21 to i32
  %23 = load ptr, ptr %4, align 8
  %24 = call noundef nonnull align 1 dereferenceable(1) ptr @_ZN3vcg20GLMeshAttributesInfo13RenderingAttsINS0_9ATT_NAMESEEixEj(ptr noundef nonnull align 1 dereferenceable(7) %23, i32 noundef 1)
  %25 = load i8, ptr %24, align 1
  %26 = trunc i8 %25 to i1
  %27 = zext i1 %26 to i32
  %28 = and i32 %27, %22
  %29 = icmp ne i32 %28, 0
  %30 = zext i1 %29 to i8
  store i8 %30, ptr %24, align 1
  %31 = load ptr, ptr %3, align 8
  %32 = call noundef zeroext i1 @_ZNK9MeshModel11hasDataMaskEi(ptr noundef nonnull align 8 dereferenceable(1288) %31, i32 noundef 8192)
  %33 = zext i1 %32 to i32
  %34 = load ptr, ptr %4, align 8
  %35 = call noundef nonnull align 1 dereferenceable(1) ptr @_ZN3vcg20GLMeshAttributesInfo13RenderingAttsINS0_9ATT_NAMESEEixEj(ptr noundef nonnull align 1 dereferenceable(7) %34, i32 noundef 2)
  %36 = load i8, ptr %35, align 1
  %37 = trunc i8 %36 to i1
  %38 = zext i1 %37 to i32
  %39 = and i32 %38, %33
  %40 = icmp ne i32 %39, 0
  %41 = zext i1 %40 to i8
  store i8 %41, ptr %35, align 1
  %42 = load ptr, ptr %3, align 8
  %43 = call noundef zeroext i1 @_ZNK9MeshModel11hasDataMaskEi(ptr noundef nonnull align 8 dereferenceable(1288) %42, i32 noundef 8)
  %44 = zext i1 %43 to i32
  %45 = load ptr, ptr %4, align 8
  %46 = call noundef nonnull align 1 dereferenceable(1) ptr @_ZN3vcg20GLMeshAttributesInfo13RenderingAttsINS0_9ATT_NAMESEEixEj(ptr noundef nonnull align 1 dereferenceable(7) %45, i32 noundef 3)
  %47 = load i8, ptr %46, align 1
  %48 = trunc i8 %47 to i1
  %49 = zext i1 %48 to i32
  %50 = and i32 %49, %44
  %51 = icmp ne i32 %50, 0
  %52 = zext i1 %51 to i8
  store i8 %52, ptr %46, align 1
  %53 = load ptr, ptr %3, align 8
  %54 = call noundef zeroext i1 @_ZNK9MeshModel11hasDataMaskEi(ptr noundef nonnull align 8 dereferenceable(1288) %53, i32 noundef 32768)
  %55 = zext i1 %54 to i32
  %56 = load ptr, ptr %4, align 8
  %57 = call noundef nonnull align 1 dereferenceable(1) ptr @_ZN3vcg20GLMeshAttributesInfo13RenderingAttsINS0_9ATT_NAMESEEixEj(ptr noundef nonnull align 1 dereferenceable(7) %56, i32 noundef 4)
  %58 = load i8, ptr %57, align 1
  %59 = trunc i8 %58 to i1
  %60 = zext i1 %59 to i32
  %61 = and i32 %60, %55
  %62 = icmp ne i32 %61, 0
  %63 = zext i1 %62 to i8
  store i8 %63, ptr %57, align 1
  %64 = load ptr, ptr %3, align 8
  %65 = call noundef zeroext i1 @_ZNK9MeshModel11hasDataMaskEi(ptr noundef nonnull align 8 dereferenceable(1288) %64, i32 noundef 2097152)
  %66 = zext i1 %65 to i32
  %67 = load ptr, ptr %4, align 8
  %68 = call noundef nonnull align 1 dereferenceable(1) ptr @_ZN3vcg20GLMeshAttributesInfo13RenderingAttsINS0_9ATT_NAMESEEixEj(ptr noundef nonnull align 1 dereferenceable(7) %67, i32 noundef 6)
  %69 = load i8, ptr %68, align 1
  %70 = trunc i8 %69 to i1
  %71 = zext i1 %70 to i32
  %72 = and i32 %71, %66
  %73 = icmp ne i32 %72, 0
  %74 = zext i1 %73 to i8
  store i8 %74, ptr %68, align 1
  %75 = load ptr, ptr %3, align 8
  %76 = call noundef zeroext i1 @_ZNK9MeshModel11hasDataMaskEi(ptr noundef nonnull align 8 dereferenceable(1288) %75, i32 noundef 1024)
  %77 = zext i1 %76 to i32
  %78 = load ptr, ptr %4, align 8
  %79 = call noundef nonnull align 1 dereferenceable(1) ptr @_ZN3vcg20GLMeshAttributesInfo13RenderingAttsINS0_9ATT_NAMESEEixEj(ptr noundef nonnull align 1 dereferenceable(7) %78, i32 noundef 5)
  %80 = load i8, ptr %79, align 1
  %81 = trunc i8 %80 to i1
  %82 = zext i1 %81 to i32
  %83 = and i32 %82, %77
  %84 = icmp ne i32 %83, 0
  %85 = zext i1 %84 to i8
  store i8 %85, ptr %79, align 1
  br label %86

86:                                               ; preds = %8, %7
  ret void
}