; Function Attrs: mustprogress uwtable
define void @_ZN29MLPoliciesStandAloneFunctions38filterUselessUdpateAccordingToMeshMaskEP9MeshModelRN3vcg20GLMeshAttributesInfo13RenderingAttsINS3_9ATT_NAMESEEE(ptr noundef %0, ptr nocapture noundef nonnull align 1 dereferenceable(7) %1) local_unnamed_addr #9 align 2 personality ptr @__gxx_personality_v0 {
  %3 = icmp eq ptr %0, null
  br i1 %3, label %53, label %4

4:                                                ; preds = %2
  %5 = tail call noundef zeroext i1 @_ZNK9MeshModel11hasDataMaskEi(ptr noundef nonnull align 8 dereferenceable(1288) %0, i32 noundef 1)
  %6 = load i8, ptr %1, align 1
  %7 = and i8 %6, 1
  %8 = icmp ne i8 %7, 0
  %9 = select i1 %5, i1 %8, i1 false
  %10 = zext i1 %9 to i8
  store i8 %10, ptr %1, align 1
  %11 = tail call noundef zeroext i1 @_ZNK9MeshModel11hasDataMaskEi(ptr noundef nonnull align 8 dereferenceable(1288) %0, i32 noundef 2)
  %12 = getelementptr inbounds i8, ptr %1, i64 1
  %13 = load i8, ptr %12, align 1
  %14 = and i8 %13, 1
  %15 = icmp ne i8 %14, 0
  %16 = select i1 %11, i1 %15, i1 false
  %17 = zext i1 %16 to i8
  store i8 %17, ptr %12, align 1
  %18 = tail call noundef zeroext i1 @_ZNK9MeshModel11hasDataMaskEi(ptr noundef nonnull align 8 dereferenceable(1288) %0, i32 noundef 8192)
  %19 = getelementptr inbounds i8, ptr %1, i64 2
  %20 = load i8, ptr %19, align 1
  %21 = and i8 %20, 1
  %22 = icmp ne i8 %21, 0
  %23 = select i1 %18, i1 %22, i1 false
  %24 = zext i1 %23 to i8
  store i8 %24, ptr %19, align 1
  %25 = tail call noundef zeroext i1 @_ZNK9MeshModel11hasDataMaskEi(ptr noundef nonnull align 8 dereferenceable(1288) %0, i32 noundef 8)
  %26 = getelementptr inbounds i8, ptr %1, i64 3
  %27 = load i8, ptr %26, align 1
  %28 = and i8 %27, 1
  %29 = icmp ne i8 %28, 0
  %30 = select i1 %25, i1 %29, i1 false
  %31 = zext i1 %30 to i8
  store i8 %31, ptr %26, align 1
  %32 = tail call noundef zeroext i1 @_ZNK9MeshModel11hasDataMaskEi(ptr noundef nonnull align 8 dereferenceable(1288) %0, i32 noundef 32768)
  %33 = getelementptr inbounds i8, ptr %1, i64 4
  %34 = load i8, ptr %33, align 1
  %35 = and i8 %34, 1
  %36 = icmp ne i8 %35, 0
  %37 = select i1 %32, i1 %36, i1 false
  %38 = zext i1 %37 to i8
  store i8 %38, ptr %33, align 1
  %39 = tail call noundef zeroext i1 @_ZNK9MeshModel11hasDataMaskEi(ptr noundef nonnull align 8 dereferenceable(1288) %0, i32 noundef 2097152)
  %40 = getelementptr inbounds i8, ptr %1, i64 6
  %41 = load i8, ptr %40, align 1
  %42 = and i8 %41, 1
  %43 = icmp ne i8 %42, 0
  %44 = select i1 %39, i1 %43, i1 false
  %45 = zext i1 %44 to i8
  store i8 %45, ptr %40, align 1
  %46 = tail call noundef zeroext i1 @_ZNK9MeshModel11hasDataMaskEi(ptr noundef nonnull align 8 dereferenceable(1288) %0, i32 noundef 1024)
  %47 = getelementptr inbounds i8, ptr %1, i64 5
  %48 = load i8, ptr %47, align 1
  %49 = and i8 %48, 1
  %50 = icmp ne i8 %49, 0
  %51 = select i1 %46, i1 %50, i1 false
  %52 = zext i1 %51 to i8
  store i8 %52, ptr %47, align 1
  br label %53

53:                                               ; preds = %2, %4
  ret void
}